; Function Attrs: mustprogress nounwind uwtable
define internal fastcc void @_ZN5vcpkg4Json12_GLOBAL__N_16ParserD2Ev(ptr noundef nonnull align 8 dereferenceable(184) %0) unnamed_addr #1 align 2 personality ptr @__gxx_personality_v0 {
  %2 = getelementptr inbounds i8, ptr %0, i64 104
  %3 = getelementptr inbounds i8, ptr %0, i64 144
  %4 = load ptr, ptr %3, align 8
  %5 = getelementptr inbounds i8, ptr %0, i64 152
  %6 = load ptr, ptr %5, align 8
  %.not4.i.i.i.i.i.i = icmp eq ptr %4, %6
  br i1 %.not4.i.i.i.i.i.i, label %_ZSt8_DestroyIPN5vcpkg12ParseMessageES1_EvT_S3_RSaIT0_E.exit.i.i.i, label %.lr.ph.i.i.i.i.i.i

.lr.ph.i.i.i.i.i.i:                               ; preds = %1, %.lr.ph.i.i.i.i.i.i
  %.05.i.i.i.i.i.i = phi ptr [ %8, %.lr.ph.i.i.i.i.i.i ], [ %4, %1 ]
  %7 = getelementptr inbounds i8, ptr %.05.i.i.i.i.i.i, i64 72
  tail call void @_ZNSt7__cxx1112basic_stringIcSt11char_traitsIcESaIcEED1Ev(ptr noundef nonnull align 8 dereferenceable(32) %7) #26
  %8 = getelementptr inbounds i8, ptr %.05.i.i.i.i.i.i, i64 104
  %.not.i.i.i.i.i.i = icmp eq ptr %8, %6
  br i1 %.not.i.i.i.i.i.i, label %_ZSt8_DestroyIPN5vcpkg12ParseMessageES1_EvT_S3_RSaIT0_E.exitthread-pre-split.i.i.i, label %.lr.ph.i.i.i.i.i.i, !llvm.loop !171

_ZSt8_DestroyIPN5vcpkg12ParseMessageES1_EvT_S3_RSaIT0_E.exitthread-pre-split.i.i.i: ; preds = %.lr.ph.i.i.i.i.i.i
  %.pr.i.i.i = load ptr, ptr %3, align 8
  br label %_ZSt8_DestroyIPN5vcpkg12ParseMessageES1_EvT_S3_RSaIT0_E.exit.i.i.i

_ZSt8_DestroyIPN5vcpkg12ParseMessageES1_EvT_S3_RSaIT0_E.exit.i.i.i: ; preds = %_ZSt8_DestroyIPN5vcpkg12ParseMessageES1_EvT_S3_RSaIT0_E.exitthread-pre-split.i.i.i, %1
  %9 = phi ptr [ %.pr.i.i.i, %_ZSt8_DestroyIPN5vcpkg12ParseMessageES1_EvT_S3_RSaIT0_E.exitthread-pre-split.i.i.i ], [ %4, %1 ]
  %.not.i.i.i.i.i = icmp eq ptr %9, null
  br i1 %.not.i.i.i.i.i, label %_ZNSt6vectorIN5vcpkg12ParseMessageESaIS1_EED2Ev.exit.i.i, label %10

10:                                               ; preds = %_ZSt8_DestroyIPN5vcpkg12ParseMessageES1_EvT_S3_RSaIT0_E.exit.i.i.i
  tail call void @_ZdlPv(ptr noundef nonnull %9) #29
  br label %_ZNSt6vectorIN5vcpkg12ParseMessageESaIS1_EED2Ev.exit.i.i

_ZNSt6vectorIN5vcpkg12ParseMessageESaIS1_EED2Ev.exit.i.i: ; preds = %10, %_ZSt8_DestroyIPN5vcpkg12ParseMessageES1_EvT_S3_RSaIT0_E.exit.i.i.i
  %11 = load i8, ptr %2, align 8
  %12 = and i8 %11, 1
  %.not.i.i.i.i = icmp eq i8 %12, 0
  br i1 %.not.i.i.i.i, label %_ZN5vcpkg10ParserBaseD2Ev.exit, label %13

13:                                               ; preds = %_ZNSt6vectorIN5vcpkg12ParseMessageESaIS1_EED2Ev.exit.i.i
  %14 = getelementptr inbounds i8, ptr %0, i64 112
  tail call void @_ZNSt7__cxx1112basic_stringIcSt11char_traitsIcESaIcEED1Ev(ptr noundef nonnull align 8 dereferenceable(32) %14) #26
  br label %_ZN5vcpkg10ParserBaseD2Ev.exit

_ZN5vcpkg10ParserBaseD2Ev.exit:                   ; preds = %_ZNSt6vectorIN5vcpkg12ParseMessageESaIS1_EED2Ev.exit.i.i, %13
  ret void
}